###############################################################################
#                                                                             #
#                                                       15/Oct/2012  16:29:13 #
# IAR ANSI C/C++ Compiler V5.50.7.22081/W32 EVALUATION for ARM                #
# Copyright (C) 1999-2010 IAR Systems AB.                                     #
#                                                                             #
#    Cpu mode     =  thumb                                                    #
#    Endian       =  little                                                   #
#    Source file  =  C:\Documents and Settings\Administrator\My               #
#                    Documents\MyWirelessApp Demo Non Beacon                  #
#                    (Coordinator)\MyWirelessApp Demo Non Beacon              #
#                    (Coordinator)\PLM\Source\Common\Sys\PlatformInterrupts.c #
#    Command line =  "C:\Documents and Settings\Administrator\My              #
#                    Documents\MyWirelessApp Demo Non Beacon                  #
#                    (Coordinator)\MyWirelessApp Demo Non Beacon              #
#                    (Coordinator)\PLM\Source\Common\Sys\PlatformInterrupts.c #
#                    " -D gMacStandAlone_d=1 -D gSAPMessagesEnableLlc_d=0 -D  #
#                    gZtcIncluded_d=0 -D gTargetMC1322xNCB=1 --preprocess     #
#                    "C:\Documents and Settings\Administrator\My              #
#                    Documents\MyWirelessApp Demo Non Beacon                  #
#                    (Coordinator)\MyWirelessApp Demo Non Beacon              #
#                    (Coordinator)\Debug\List\" -lC "C:\Documents and         #
#                    Settings\Administrator\My Documents\MyWirelessApp Demo   #
#                    Non Beacon (Coordinator)\MyWirelessApp Demo Non Beacon   #
#                    (Coordinator)\Debug\List\" -lB "C:\Documents and         #
#                    Settings\Administrator\My Documents\MyWirelessApp Demo   #
#                    Non Beacon (Coordinator)\MyWirelessApp Demo Non Beacon   #
#                    (Coordinator)\Debug\List\" --diag_suppress               #
#                    Pe014,Pe001,Pe991,Pa039,Pe520 -o "C:\Documents and       #
#                    Settings\Administrator\My Documents\MyWirelessApp Demo   #
#                    Non Beacon (Coordinator)\MyWirelessApp Demo Non Beacon   #
#                    (Coordinator)\Debug\Obj\" --no_cse --no_unroll           #
#                    --no_inline --no_code_motion --no_tbaa --no_clustering   #
#                    --no_scheduling --debug --endian=little                  #
#                    --cpu=ARM7TDMI-S --fpu=None --dlib_config "C:\Program    #
#                    Files\IAR Systems\Embedded Workbench 5.4                 #
#                    Evaluation\arm\INC\DLib_Config_Normal.h" -I              #
#                    "C:\Documents and Settings\Administrator\My              #
#                    Documents\MyWirelessApp Demo Non Beacon                  #
#                    (Coordinator)\MyWirelessApp Demo Non Beacon              #
#                    (Coordinator)\MacPhy\Interface\" -I "C:\Documents and    #
#                    Settings\Administrator\My Documents\MyWirelessApp Demo   #
#                    Non Beacon (Coordinator)\MyWirelessApp Demo Non Beacon   #
#                    (Coordinator)\Application\Init\" -I "C:\Documents and    #
#                    Settings\Administrator\My Documents\MyWirelessApp Demo   #
#                    Non Beacon (Coordinator)\MyWirelessApp Demo Non Beacon   #
#                    (Coordinator)\Application\Interface\" -I "C:\Documents   #
#                    and Settings\Administrator\My Documents\MyWirelessApp    #
#                    Demo Non Beacon (Coordinator)\MyWirelessApp Demo Non     #
#                    Beacon (Coordinator)\Application\Configure\" -I          #
#                    "C:\Documents and Settings\Administrator\My              #
#                    Documents\MyWirelessApp Demo Non Beacon                  #
#                    (Coordinator)\MyWirelessApp Demo Non Beacon              #
#                    (Coordinator)\Application\UartUtil\" -I "C:\Documents    #
#                    and Settings\Administrator\My Documents\MyWirelessApp    #
#                    Demo Non Beacon (Coordinator)\MyWirelessApp Demo Non     #
#                    Beacon (Coordinator)\Application\Source\" -I             #
#                    "C:\Documents and Settings\Administrator\My              #
#                    Documents\MyWirelessApp Demo Non Beacon                  #
#                    (Coordinator)\MyWirelessApp Demo Non Beacon              #
#                    (Coordinator)\SSM\TS\Interface\" -I "C:\Documents and    #
#                    Settings\Administrator\My Documents\MyWirelessApp Demo   #
#                    Non Beacon (Coordinator)\MyWirelessApp Demo Non Beacon   #
#                    (Coordinator)\SSM\TS\Source\" -I "C:\Documents and       #
#                    Settings\Administrator\My Documents\MyWirelessApp Demo   #
#                    Non Beacon (Coordinator)\MyWirelessApp Demo Non Beacon   #
#                    (Coordinator)\SSM\ZTC\Interface\" -I "C:\Documents and   #
#                    Settings\Administrator\My Documents\MyWirelessApp Demo   #
#                    Non Beacon (Coordinator)\MyWirelessApp Demo Non Beacon   #
#                    (Coordinator)\SSM\ZTC\Source\" -I "C:\Documents and      #
#                    Settings\Administrator\My Documents\MyWirelessApp Demo   #
#                    Non Beacon (Coordinator)\MyWirelessApp Demo Non Beacon   #
#                    (Coordinator)\PLM\Interface\" -I "C:\Documents and       #
#                    Settings\Administrator\My Documents\MyWirelessApp Demo   #
#                    Non Beacon (Coordinator)\MyWirelessApp Demo Non Beacon   #
#                    (Coordinator)\PLM\LibInterface\" -I "C:\Documents and    #
#                    Settings\Administrator\My Documents\MyWirelessApp Demo   #
#                    Non Beacon (Coordinator)\MyWirelessApp Demo Non Beacon   #
#                    (Coordinator)\PLM\Source\Display\" -I "C:\Documents and  #
#                    Settings\Administrator\My Documents\MyWirelessApp Demo   #
#                    Non Beacon (Coordinator)\MyWirelessApp Demo Non Beacon   #
#                    (Coordinator)\PLM\Source\Keyboard\" -I "C:\Documents     #
#                    and Settings\Administrator\My Documents\MyWirelessApp    #
#                    Demo Non Beacon (Coordinator)\MyWirelessApp Demo Non     #
#                    Beacon (Coordinator)\PLM\Source\NVM\" -I "C:\Documents   #
#                    and Settings\Administrator\My Documents\MyWirelessApp    #
#                    Demo Non Beacon (Coordinator)\MyWirelessApp Demo Non     #
#                    Beacon (Coordinator)\PLM\Source\TMR\" -I "C:\Documents   #
#                    and Settings\Administrator\My Documents\MyWirelessApp    #
#                    Demo Non Beacon (Coordinator)\MyWirelessApp Demo Non     #
#                    Beacon (Coordinator)\PLM\Source\UART\" -I "C:\Program    #
#                    Files\IAR Systems\Embedded Workbench 5.4                 #
#                    Evaluation\arm\INC\" --interwork --cpu_mode thumb -On    #
#    List file    =  C:\Documents and Settings\Administrator\My               #
#                    Documents\MyWirelessApp Demo Non Beacon                  #
#                    (Coordinator)\MyWirelessApp Demo Non Beacon              #
#                    (Coordinator)\Debug\List\PlatformInterrupts.lst          #
#    Object file  =  C:\Documents and Settings\Administrator\My               #
#                    Documents\MyWirelessApp Demo Non Beacon                  #
#                    (Coordinator)\MyWirelessApp Demo Non Beacon              #
#                    (Coordinator)\Debug\Obj\PlatformInterrupts.o             #
#                                                                             #
#                                                                             #
###############################################################################

C:\Documents and Settings\Administrator\My Documents\MyWirelessApp Demo Non Beacon (Coordinator)\MyWirelessApp Demo Non Beacon (Coordinator)\PLM\Source\Common\Sys\PlatformInterrupts.c
      1          /************************************************************************************
      2          *
      3          * (c) Copyright 2004, Freescale, Inc.  All rights reserved.
      4          *
      5          * No part of this document must be reproduced in any form - including copied,
      6          * transcribed, printed or by any electronic means - without specific written
      7          * permission from Freescale.
      8          *
      9          ************************************************************************************/
     10          #include "EmbeddedTypes.h"
     11          #include "Interrupt.h"
     12          #include "AppMacInterrupt.h"
     13          
     14          extern void  CRM_Isr(void);
     15          extern void  TmrIsr(void);
     16          
     17          void EnableMacaInt(void);
     18          void DisableMacaInt(void);
     19          unsigned int IsMacaIntEnabled(void);
     20          unsigned int IsMacaIntAsserted(void);
     21          
     22          /***********************************************************************************/

   \                                 In section .text, align 2, keep-with-next
     23          void AppInterruptsInit(void)
     24          {
   \                     AppInterruptsInit:
   \   00000000   80B5               PUSH     {R7,LR}
     25            
     26            pfEnableMacaInt     = (void(*)(void))EnableMacaInt;
   \   00000002   ....               LDR      R0,??DataTable2
   \   00000004   ....               LDR      R1,??DataTable2_1
   \   00000006   0160               STR      R1,[R0, #+0]
     27            pfDisableMacaInt    = (void(*)(void))DisableMacaInt;
   \   00000008   ....               LDR      R0,??DataTable2_2
   \   0000000A   ....               LDR      R1,??DataTable2_3
   \   0000000C   0160               STR      R1,[R0, #+0]
     28            pfIsMacaIntEnabled  = (unsigned int(*)(void))IsMacaIntEnabled;
   \   0000000E   ....               LDR      R0,??DataTable2_4
   \   00000010   ....               LDR      R1,??DataTable2_5
   \   00000012   0160               STR      R1,[R0, #+0]
     29            pfIsMacaIntAsserted = (unsigned int(*)(void))IsMacaIntAsserted;
   \   00000014   ....               LDR      R0,??DataTable2_6
   \   00000016   ....               LDR      R1,??DataTable2_7
   \   00000018   0160               STR      R1,[R0, #+0]
     30          
     31            pfDisableProccessorIrqs = (int(*)(void))IntDisableAll;
   \   0000001A   ....               LDR      R0,??DataTable2_8
   \   0000001C   ....               LDR      R1,??DataTable2_9
   \   0000001E   0160               STR      R1,[R0, #+0]
     32            pfEnableProccessorIrqs = (void(*)(int))IntRestoreAll;
   \   00000020   ....               LDR      R0,??DataTable2_10
   \   00000022   ....               LDR      R1,??DataTable2_11
   \   00000024   0160               STR      R1,[R0, #+0]
     33          
     34            /* Set priority and handler for Crm, timer, and maca*/
     35          
     36            IntAssignHandler(gTmrInt_c, (IntHandlerFunc_t)TmrIsr);  
   \   00000026   ....               LDR      R1,??DataTable2_12
   \   00000028   0520               MOVS     R0,#+5
   \   0000002A   ........           BL       IntAssignHandler
     37            ITC_SetPriority(gTmrInt_c, gItcFastPriority_c);
   \   0000002E   0121               MOVS     R1,#+1
   \   00000030   0520               MOVS     R0,#+5
   \   00000032   ........           BL       ITC_SetPriority
     38            ITC_EnableInterrupt(gTmrInt_c);
   \   00000036   0520               MOVS     R0,#+5
   \   00000038   ........           BL       ITC_EnableInterrupt
     39            
     40            IntAssignHandler(gCrmInt_c, (IntHandlerFunc_t)CRM_Isr);
   \   0000003C   ....               LDR      R1,??DataTable2_13
   \   0000003E   0320               MOVS     R0,#+3
   \   00000040   ........           BL       IntAssignHandler
     41            ITC_SetPriority(gCrmInt_c, gItcFastPriority_c);
   \   00000044   0121               MOVS     R1,#+1
   \   00000046   0320               MOVS     R0,#+3
   \   00000048   ........           BL       ITC_SetPriority
     42            ITC_EnableInterrupt(gCrmInt_c);
   \   0000004C   0320               MOVS     R0,#+3
   \   0000004E   ........           BL       ITC_EnableInterrupt
     43              
     44            IntAssignHandler(gMacaInt_c, MACA_Interrupt);
   \   00000052   ....               LDR      R1,??DataTable2_14
   \   00000054   0720               MOVS     R0,#+7
   \   00000056   ........           BL       IntAssignHandler
     45            ITC_SetPriority(gMacaInt_c, gItcFastPriority_c);
   \   0000005A   0121               MOVS     R1,#+1
   \   0000005C   0720               MOVS     R0,#+7
   \   0000005E   ........           BL       ITC_SetPriority
     46            ITC_EnableInterrupt(gMacaInt_c);
   \   00000062   0720               MOVS     R0,#+7
   \   00000064   ........           BL       ITC_EnableInterrupt
     47          
     48          }
   \   00000068   09BC               POP      {R0,R3}
   \   0000006A   1847               BX       R3               ;; return
     49          
     50          /***********************************************************************************/

   \                                 In section .text, align 2, keep-with-next
     51          void EnableMacaInt(void)
     52          {
   \                     EnableMacaInt:
   \   00000000   80B5               PUSH     {R7,LR}
     53            ITC_EnableInterrupt(gMacaInt_c);
   \   00000002   0720               MOVS     R0,#+7
   \   00000004   ........           BL       ITC_EnableInterrupt
     54          }
   \   00000008   09BC               POP      {R0,R3}
   \   0000000A   1847               BX       R3               ;; return
     55          
     56          /***********************************************************************************/

   \                                 In section .text, align 2, keep-with-next
     57          void DisableMacaInt(void)
     58          {
   \                     DisableMacaInt:
   \   00000000   80B5               PUSH     {R7,LR}
     59            ITC_DisableInterrupt(gMacaInt_c);
   \   00000002   0720               MOVS     R0,#+7
   \   00000004   ........           BL       ITC_DisableInterrupt
     60          }
   \   00000008   09BC               POP      {R0,R3}
   \   0000000A   1847               BX       R3               ;; return
     61          
     62          /***********************************************************************************/

   \                                 In section .text, align 2, keep-with-next
     63          unsigned int IsMacaIntEnabled(void)
     64          {
     65            return ITC_GetIntEnable(gMacaInt_c);
   \                     IsMacaIntEnabled:
   \   00000000   ....               LDR      R0,??DataTable2_15  ;; 0x80020010
   \   00000002   0168               LDR      R1,[R0, #+0]
   \   00000004   0800               MOVS     R0,R1
   \   00000006   0006               LSLS     R0,R0,#+24       ;; ZeroExtS R0,R0,#+24,#+31
   \   00000008   C00F               LSRS     R0,R0,#+31
   \   0000000A   7047               BX       LR               ;; return
     66          }
     67          
     68          /***********************************************************************************/

   \                                 In section .text, align 2, keep-with-next
     69          unsigned int IsMacaIntAsserted(void)
     70          {
     71            return ITC_GetIntSrc(gMacaInt_c);
   \                     IsMacaIntAsserted:
   \   00000000   ....               LDR      R0,??DataTable2_16  ;; 0x80020030
   \   00000002   0168               LDR      R1,[R0, #+0]
   \   00000004   0800               MOVS     R0,R1
   \   00000006   0006               LSLS     R0,R0,#+24       ;; ZeroExtS R0,R0,#+24,#+31
   \   00000008   C00F               LSRS     R0,R0,#+31
   \   0000000A   7047               BX       LR               ;; return
     72          }

   \                                 In section .text, align 4, keep-with-next
   \                     ??DataTable2:
   \   00000000   ........           DC32     pfEnableMacaInt

   \                                 In section .text, align 4, keep-with-next
   \                     ??DataTable2_1:
   \   00000000   ........           DC32     EnableMacaInt

   \                                 In section .text, align 4, keep-with-next
   \                     ??DataTable2_2:
   \   00000000   ........           DC32     pfDisableMacaInt

   \                                 In section .text, align 4, keep-with-next
   \                     ??DataTable2_3:
   \   00000000   ........           DC32     DisableMacaInt

   \                                 In section .text, align 4, keep-with-next
   \                     ??DataTable2_4:
   \   00000000   ........           DC32     pfIsMacaIntEnabled

   \                                 In section .text, align 4, keep-with-next
   \                     ??DataTable2_5:
   \   00000000   ........           DC32     IsMacaIntEnabled

   \                                 In section .text, align 4, keep-with-next
   \                     ??DataTable2_6:
   \   00000000   ........           DC32     pfIsMacaIntAsserted

   \                                 In section .text, align 4, keep-with-next
   \                     ??DataTable2_7:
   \   00000000   ........           DC32     IsMacaIntAsserted

   \                                 In section .text, align 4, keep-with-next
   \                     ??DataTable2_8:
   \   00000000   ........           DC32     pfDisableProccessorIrqs

   \                                 In section .text, align 4, keep-with-next
   \                     ??DataTable2_9:
   \   00000000   ........           DC32     IntDisableAll

   \                                 In section .text, align 4, keep-with-next
   \                     ??DataTable2_10:
   \   00000000   ........           DC32     pfEnableProccessorIrqs

   \                                 In section .text, align 4, keep-with-next
   \                     ??DataTable2_11:
   \   00000000   ........           DC32     IntRestoreAll

   \                                 In section .text, align 4, keep-with-next
   \                     ??DataTable2_12:
   \   00000000   ........           DC32     TmrIsr

   \                                 In section .text, align 4, keep-with-next
   \                     ??DataTable2_13:
   \   00000000   ........           DC32     CRM_Isr

   \                                 In section .text, align 4, keep-with-next
   \                     ??DataTable2_14:
   \   00000000   ........           DC32     MACA_Interrupt

   \                                 In section .text, align 4, keep-with-next
   \                     ??DataTable2_15:
   \   00000000   10000280           DC32     0x80020010

   \                                 In section .text, align 4, keep-with-next
   \                     ??DataTable2_16:
   \   00000000   30000280           DC32     0x80020030
     73          /***********************************************************************************/

   Maximum stack usage in bytes:

     Function          .cstack
     --------          -------
     AppInterruptsInit      8
     DisableMacaInt         8
     EnableMacaInt          8
     IsMacaIntAsserted      0
     IsMacaIntEnabled       0


   Section sizes:

     Function/Label    Bytes
     --------------    -----
     AppInterruptsInit  108
     EnableMacaInt       12
     DisableMacaInt      12
     IsMacaIntEnabled    12
     IsMacaIntAsserted   12
     ??DataTable2         4
     ??DataTable2_1       4
     ??DataTable2_2       4
     ??DataTable2_3       4
     ??DataTable2_4       4
     ??DataTable2_5       4
     ??DataTable2_6       4
     ??DataTable2_7       4
     ??DataTable2_8       4
     ??DataTable2_9       4
     ??DataTable2_10      4
     ??DataTable2_11      4
     ??DataTable2_12      4
     ??DataTable2_13      4
     ??DataTable2_14      4
     ??DataTable2_15      4
     ??DataTable2_16      4

 
 224 bytes in section .text
 
 224 bytes of CODE memory

Errors: none
Warnings: none
